target datalayout = "e-m:e-p270:32:32-p271:32:32-p272:64:64-i64:64-i128:128-f80:128-n8:16:32:64-S128"
target triple = "x86_64-pc-linux-gnu"

%struct.RangeCoder = type { ptr, ptr, i32, i32, i32 }

; Function Attrs: nounwind uwtable
define internal void @rac_normalise(ptr noundef %0) #1 {
  %2 = alloca ptr, align 8
  store ptr %0, ptr %2, align 8, !tbaa !58
  br label %3

3:                                                ; preds = %60, %1
  %4 = load ptr, ptr %2, align 8, !tbaa !58
  %5 = getelementptr inbounds nuw %struct.RangeCoder, ptr %4, i32 0, i32 2
  %6 = load i32, ptr %5, align 8, !tbaa !118
  %7 = shl i32 %6, 8
  store i32 %7, ptr %5, align 8, !tbaa !118
  %8 = load ptr, ptr %2, align 8, !tbaa !58
  %9 = getelementptr inbounds nuw %struct.RangeCoder, ptr %8, i32 0, i32 3
  %10 = load i32, ptr %9, align 4, !tbaa !115
  %11 = shl i32 %10, 8
  store i32 %11, ptr %9, align 4, !tbaa !115
  %12 = load ptr, ptr %2, align 8, !tbaa !58
  %13 = getelementptr inbounds nuw %struct.RangeCoder, ptr %12, i32 0, i32 0
  %14 = load ptr, ptr %13, align 8, !tbaa !113
  %15 = load ptr, ptr %2, align 8, !tbaa !58
  %16 = getelementptr inbounds nuw %struct.RangeCoder, ptr %15, i32 0, i32 1
  %17 = load ptr, ptr %16, align 8, !tbaa !114
  %18 = icmp ult ptr %14, %17
  br i1 %18, label %19, label %30

19:                                               ; preds = %3
  %20 = load ptr, ptr %2, align 8, !tbaa !58
  %21 = getelementptr inbounds nuw %struct.RangeCoder, ptr %20, i32 0, i32 0
  %22 = load ptr, ptr %21, align 8, !tbaa !113
  %23 = getelementptr inbounds nuw i8, ptr %22, i32 1
  store ptr %23, ptr %21, align 8, !tbaa !113
  %24 = load i8, ptr %22, align 1, !tbaa !116
  %25 = zext i8 %24 to i32
  %26 = load ptr, ptr %2, align 8, !tbaa !58
  %27 = getelementptr inbounds nuw %struct.RangeCoder, ptr %26, i32 0, i32 3
  %28 = load i32, ptr %27, align 4, !tbaa !115
  %29 = or i32 %28, %25
  store i32 %29, ptr %27, align 4, !tbaa !115
  br label %41

30:                                               ; preds = %3
  %31 = load ptr, ptr %2, align 8, !tbaa !58
  %32 = getelementptr inbounds nuw %struct.RangeCoder, ptr %31, i32 0, i32 3
  %33 = load i32, ptr %32, align 4, !tbaa !115
  %34 = icmp ne i32 %33, 0
  br i1 %34, label %40, label %35

35:                                               ; preds = %30
  %36 = load ptr, ptr %2, align 8, !tbaa !58
  %37 = getelementptr inbounds nuw %struct.RangeCoder, ptr %36, i32 0, i32 4
  store i32 1, ptr %37, align 8, !tbaa !66
  %38 = load ptr, ptr %2, align 8, !tbaa !58
  %39 = getelementptr inbounds nuw %struct.RangeCoder, ptr %38, i32 0, i32 3
  store i32 1, ptr %39, align 4, !tbaa !115
  br label %40

40:                                               ; preds = %35, %30
  br label %41

41:                                               ; preds = %40, %19
  %42 = load ptr, ptr %2, align 8, !tbaa !58
  %43 = getelementptr inbounds nuw %struct.RangeCoder, ptr %42, i32 0, i32 3
  %44 = load i32, ptr %43, align 4, !tbaa !115
  %45 = load ptr, ptr %2, align 8, !tbaa !58
  %46 = getelementptr inbounds nuw %struct.RangeCoder, ptr %45, i32 0, i32 2
  %47 = load i32, ptr %46, align 8, !tbaa !118
  %48 = icmp ugt i32 %44, %47
  br i1 %48, label %49, label %54

49:                                               ; preds = %41
  %50 = load ptr, ptr %2, align 8, !tbaa !58
  %51 = getelementptr inbounds nuw %struct.RangeCoder, ptr %50, i32 0, i32 4
  store i32 1, ptr %51, align 8, !tbaa !66
  %52 = load ptr, ptr %2, align 8, !tbaa !58
  %53 = getelementptr inbounds nuw %struct.RangeCoder, ptr %52, i32 0, i32 3
  store i32 1, ptr %53, align 4, !tbaa !115
  br label %54

54:                                               ; preds = %49, %41
  %55 = load ptr, ptr %2, align 8, !tbaa !58
  %56 = getelementptr inbounds nuw %struct.RangeCoder, ptr %55, i32 0, i32 2
  %57 = load i32, ptr %56, align 8, !tbaa !118
  %58 = icmp uge i32 %57, 16777216
  br i1 %58, label %59, label %60

59:                                               ; preds = %54
  ret void

60:                                               ; preds = %54
  br label %3
}

; Function Attrs: nounwind uwtable
define internal i32 @rac_get_bits(ptr noundef %0, i32 noundef %1) #1 {
  %3 = alloca ptr, align 8
  %4 = alloca i32, align 4
  %5 = alloca i32, align 4
  store ptr %0, ptr %3, align 8, !tbaa !58
  store i32 %1, ptr %4, align 4, !tbaa !38
  call void @llvm.lifetime.start.p0(i64 4, ptr %5) #8
  %6 = load i32, ptr %4, align 4, !tbaa !38
  %7 = load ptr, ptr %3, align 8, !tbaa !58
  %8 = getelementptr inbounds nuw %struct.RangeCoder, ptr %7, i32 0, i32 2
  %9 = load i32, ptr %8, align 8, !tbaa !118
  %10 = lshr i32 %9, %6
  store i32 %10, ptr %8, align 8, !tbaa !118
  %11 = load ptr, ptr %3, align 8, !tbaa !58
  %12 = getelementptr inbounds nuw %struct.RangeCoder, ptr %11, i32 0, i32 3
  %13 = load i32, ptr %12, align 4, !tbaa !115
  %14 = load ptr, ptr %3, align 8, !tbaa !58
  %15 = getelementptr inbounds nuw %struct.RangeCoder, ptr %14, i32 0, i32 2
  %16 = load i32, ptr %15, align 8, !tbaa !118
  %17 = udiv i32 %13, %16
  store i32 %17, ptr %5, align 4, !tbaa !38
  %18 = load ptr, ptr %3, align 8, !tbaa !58
  %19 = getelementptr inbounds nuw %struct.RangeCoder, ptr %18, i32 0, i32 2
  %20 = load i32, ptr %19, align 8, !tbaa !118
  %21 = load i32, ptr %5, align 4, !tbaa !38
  %22 = mul i32 %20, %21
  %23 = load ptr, ptr %3, align 8, !tbaa !58
  %24 = getelementptr inbounds nuw %struct.RangeCoder, ptr %23, i32 0, i32 3
  %25 = load i32, ptr %24, align 4, !tbaa !115
  %26 = sub i32 %25, %22
  store i32 %26, ptr %24, align 4, !tbaa !115
  %27 = load ptr, ptr %3, align 8, !tbaa !58
  %28 = getelementptr inbounds nuw %struct.RangeCoder, ptr %27, i32 0, i32 2
  %29 = load i32, ptr %28, align 8, !tbaa !118
  %30 = icmp ult i32 %29, 16777216
  br i1 %30, label %31, label %33

31:                                               ; preds = %2
  %32 = load ptr, ptr %3, align 8, !tbaa !58
  call void @rac_normalise(ptr noundef %32)
  br label %33

33:                                               ; preds = %31, %2
  %34 = load i32, ptr %5, align 4, !tbaa !38
  call void @llvm.lifetime.end.p0(i64 4, ptr %5) #8
  ret i32 %34
}

; Function Attrs: nounwind uwtable
define internal i32 @rac_get_bit(ptr noundef %0) #1 {
  %2 = alloca ptr, align 8
  %3 = alloca i32, align 4
  store ptr %0, ptr %2, align 8, !tbaa !58
  call void @llvm.lifetime.start.p0(i64 4, ptr %3) #8
  %4 = load ptr, ptr %2, align 8, !tbaa !58
  %5 = getelementptr inbounds nuw %struct.RangeCoder, ptr %4, i32 0, i32 2
  %6 = load i32, ptr %5, align 8, !tbaa !118
  %7 = lshr i32 %6, 1
  store i32 %7, ptr %5, align 8, !tbaa !118
  %8 = load ptr, ptr %2, align 8, !tbaa !58
  %9 = getelementptr inbounds nuw %struct.RangeCoder, ptr %8, i32 0, i32 2
  %10 = load i32, ptr %9, align 8, !tbaa !118
  %11 = load ptr, ptr %2, align 8, !tbaa !58
  %12 = getelementptr inbounds nuw %struct.RangeCoder, ptr %11, i32 0, i32 3
  %13 = load i32, ptr %12, align 4, !tbaa !115
  %14 = icmp ule i32 %10, %13
  %15 = zext i1 %14 to i32
  store i32 %15, ptr %3, align 4, !tbaa !38
  %16 = load i32, ptr %3, align 4, !tbaa !38
  %17 = icmp ne i32 %16, 0
  br i1 %17, label %18, label %26

18:                                               ; preds = %1
  %19 = load ptr, ptr %2, align 8, !tbaa !58
  %20 = getelementptr inbounds nuw %struct.RangeCoder, ptr %19, i32 0, i32 2
  %21 = load i32, ptr %20, align 8, !tbaa !118
  %22 = load ptr, ptr %2, align 8, !tbaa !58
  %23 = getelementptr inbounds nuw %struct.RangeCoder, ptr %22, i32 0, i32 3
  %24 = load i32, ptr %23, align 4, !tbaa !115
  %25 = sub i32 %24, %21
  store i32 %25, ptr %23, align 4, !tbaa !115
  br label %26

26:                                               ; preds = %18, %1
  %27 = load ptr, ptr %2, align 8, !tbaa !58
  %28 = getelementptr inbounds nuw %struct.RangeCoder, ptr %27, i32 0, i32 2
  %29 = load i32, ptr %28, align 8, !tbaa !118
  %30 = icmp ult i32 %29, 16777216
  br i1 %30, label %31, label %33

31:                                               ; preds = %26
  %32 = load ptr, ptr %2, align 8, !tbaa !58
  call void @rac_normalise(ptr noundef %32)
  br label %33

33:                                               ; preds = %31, %26
  %34 = load i32, ptr %3, align 4, !tbaa !38
  call void @llvm.lifetime.end.p0(i64 4, ptr %3) #8
  ret i32 %34
}

; Function Attrs: nounwind uwtable
define internal i32 @decode_coeff(ptr noundef %0, ptr noundef %1) #1 {
  %3 = alloca ptr, align 8
  %4 = alloca ptr, align 8
  %5 = alloca i32, align 4
  %6 = alloca i32, align 4
  store ptr %0, ptr %3, align 8, !tbaa !58
  store ptr %1, ptr %4, align 8, !tbaa !74
  call void @llvm.lifetime.start.p0(i64 4, ptr %5) #8
  call void @llvm.lifetime.start.p0(i64 4, ptr %6) #8
  %7 = load ptr, ptr %3, align 8, !tbaa !58
  %8 = load ptr, ptr %4, align 8, !tbaa !74
  %9 = call i32 @rac_get_model_sym(ptr noundef %7, ptr noundef %8)
  store i32 %9, ptr %5, align 4, !tbaa !38
  %10 = load i32, ptr %5, align 4, !tbaa !38
  %11 = icmp ne i32 %10, 0
  br i1 %11, label %12, label %33

12:                                               ; preds = %2
  %13 = load ptr, ptr %3, align 8, !tbaa !58
  %14 = call i32 @rac_get_bit(ptr noundef %13)
  store i32 %14, ptr %6, align 4, !tbaa !38
  %15 = load i32, ptr %5, align 4, !tbaa !38
  %16 = icmp sgt i32 %15, 1
  br i1 %16, label %17, label %26

17:                                               ; preds = %12
  %18 = load i32, ptr %5, align 4, !tbaa !38
  %19 = add nsw i32 %18, -1
  store i32 %19, ptr %5, align 4, !tbaa !38
  %20 = load i32, ptr %5, align 4, !tbaa !38
  %21 = shl i32 1, %20
  %22 = load ptr, ptr %3, align 8, !tbaa !58
  %23 = load i32, ptr %5, align 4, !tbaa !38
  %24 = call i32 @rac_get_bits(ptr noundef %22, i32 noundef %23)
  %25 = add nsw i32 %21, %24
  store i32 %25, ptr %5, align 4, !tbaa !38
  br label %26

26:                                               ; preds = %17, %12
  %27 = load i32, ptr %6, align 4, !tbaa !38
  %28 = icmp ne i32 %27, 0
  br i1 %28, label %32, label %29

29:                                               ; preds = %26
  %30 = load i32, ptr %5, align 4, !tbaa !38
  %31 = sub nsw i32 0, %30
  store i32 %31, ptr %5, align 4, !tbaa !38
  br label %32

32:                                               ; preds = %29, %26
  br label %33

33:                                               ; preds = %32, %2
  %34 = load i32, ptr %5, align 4, !tbaa !38
  call void @llvm.lifetime.end.p0(i64 4, ptr %6) #8
  call void @llvm.lifetime.end.p0(i64 4, ptr %5) #8
  ret i32 %34
}