; Function Attrs: nofree norecurse nosync nounwind memory(read, argmem: readwrite, inaccessiblemem: none) uwtable
define internal fastcc i32 @decode_coeff(ptr noundef captures(none) %0, ptr noundef captures(none) %1) unnamed_addr #6 {
  %3 = tail call fastcc i32 @rac_get_model_sym(ptr noundef %0, ptr noundef %1)
  %.not = icmp eq i32 %3, 0
  br i1 %.not, label %79, label %4

4:                                                ; preds = %2
  %5 = getelementptr inbounds nuw i8, ptr %0, i64 16
  %6 = load i32, ptr %5, align 8, !tbaa !61
  %7 = lshr i32 %6, 1
  store i32 %7, ptr %5, align 8, !tbaa !61
  %8 = getelementptr inbounds nuw i8, ptr %0, i64 20
  %9 = load i32, ptr %8, align 4, !tbaa !59
  %.not19 = icmp ugt i32 %7, %9
  br i1 %.not19, label %12, label %10

10:                                               ; preds = %4
  %11 = sub nuw i32 %9, %7
  store i32 %11, ptr %8, align 4, !tbaa !59
  br label %12

12:                                               ; preds = %10, %4
  %.promoted14.i.i = phi i32 [ %11, %10 ], [ %9, %4 ]
  %13 = icmp ult i32 %6, 33554432
  br i1 %13, label %14, label %rac_get_bit.exit

14:                                               ; preds = %12
  %15 = getelementptr inbounds nuw i8, ptr %0, i64 8
  %16 = load ptr, ptr %15, align 8, !tbaa !58
  %.promoted15.i.i = load ptr, ptr %0, align 8, !tbaa !57
  %17 = getelementptr inbounds nuw i8, ptr %0, i64 24
  br label %18

18:                                               ; preds = %37, %14
  %19 = phi ptr [ %33, %37 ], [ %.promoted15.i.i, %14 ]
  %20 = phi i32 [ %38, %37 ], [ %.promoted14.i.i, %14 ]
  %21 = phi i32 [ %22, %37 ], [ %7, %14 ]
  %22 = shl nuw i32 %21, 8
  store i32 %22, ptr %5, align 8, !tbaa !61
  %23 = shl i32 %20, 8
  store i32 %23, ptr %8, align 4, !tbaa !59
  %24 = icmp ult ptr %19, %16
  br i1 %24, label %25, label %30

25:                                               ; preds = %18
  %26 = getelementptr inbounds nuw i8, ptr %19, i64 1
  store ptr %26, ptr %0, align 8, !tbaa !57
  %27 = load i8, ptr %19, align 1, !tbaa !49
  %28 = zext i8 %27 to i32
  %29 = or disjoint i32 %23, %28
  br label %.sink.split.i.i

30:                                               ; preds = %18
  %.not.i.i = icmp eq i32 %23, 0
  br i1 %.not.i.i, label %31, label %32

31:                                               ; preds = %30
  store i32 1, ptr %17, align 8, !tbaa !62
  br label %.sink.split.i.i

.sink.split.i.i:                                  ; preds = %31, %25
  %.sink.i.i = phi i32 [ 1, %31 ], [ %29, %25 ]
  %.ph.i.i = phi ptr [ %19, %31 ], [ %26, %25 ]
  store i32 %.sink.i.i, ptr %8, align 4, !tbaa !59
  br label %32

32:                                               ; preds = %.sink.split.i.i, %30
  %33 = phi ptr [ %19, %30 ], [ %.ph.i.i, %.sink.split.i.i ]
  %34 = phi i32 [ %23, %30 ], [ %.sink.i.i, %.sink.split.i.i ]
  %35 = icmp ugt i32 %34, %22
  br i1 %35, label %36, label %37

36:                                               ; preds = %32
  store i32 1, ptr %17, align 8, !tbaa !62
  store i32 1, ptr %8, align 4, !tbaa !59
  br label %37

37:                                               ; preds = %36, %32
  %38 = phi i32 [ 1, %36 ], [ %34, %32 ]
  %39 = icmp ugt i32 %21, 65535
  br i1 %39, label %rac_get_bit.exit, label %18

rac_get_bit.exit:                                 ; preds = %37, %12
  %40 = phi i32 [ %.promoted14.i.i, %12 ], [ %38, %37 ]
  %41 = phi i32 [ %7, %12 ], [ %22, %37 ]
  %42 = icmp sgt i32 %3, 1
  br i1 %42, label %43, label %77

43:                                               ; preds = %rac_get_bit.exit
  %44 = add nsw i32 %3, -1
  %45 = shl nuw i32 1, %44
  %46 = lshr i32 %41, %44
  store i32 %46, ptr %5, align 8, !tbaa !61
  %47 = udiv i32 %40, %46
  %48 = mul i32 %47, %46
  %.recomposed = urem i32 %40, %46
  store i32 %.recomposed, ptr %8, align 4, !tbaa !59
  %49 = icmp samesign ult i32 %46, 16777216
  br i1 %49, label %50, label %rac_get_bits.exit

50:                                               ; preds = %43
  %51 = getelementptr inbounds nuw i8, ptr %0, i64 8
  %52 = load ptr, ptr %51, align 8, !tbaa !58
  %.promoted15.i.i14 = load ptr, ptr %0, align 8, !tbaa !57
  %53 = getelementptr inbounds nuw i8, ptr %0, i64 24
  br label %54

54:                                               ; preds = %73, %50
  %55 = phi ptr [ %69, %73 ], [ %.promoted15.i.i14, %50 ]
  %56 = phi i32 [ %74, %73 ], [ %.recomposed, %50 ]
  %57 = phi i32 [ %58, %73 ], [ %46, %50 ]
  %58 = shl nuw i32 %57, 8
  store i32 %58, ptr %5, align 8, !tbaa !61
  %59 = shl i32 %56, 8
  store i32 %59, ptr %8, align 4, !tbaa !59
  %60 = icmp ult ptr %55, %52
  br i1 %60, label %61, label %66

61:                                               ; preds = %54
  %62 = getelementptr inbounds nuw i8, ptr %55, i64 1
  store ptr %62, ptr %0, align 8, !tbaa !57
  %63 = load i8, ptr %55, align 1, !tbaa !49
  %64 = zext i8 %63 to i32
  %65 = or disjoint i32 %59, %64
  br label %.sink.split.i.i16

66:                                               ; preds = %54
  %.not.i.i15 = icmp eq i32 %59, 0
  br i1 %.not.i.i15, label %67, label %68

67:                                               ; preds = %66
  store i32 1, ptr %53, align 8, !tbaa !62
  br label %.sink.split.i.i16

.sink.split.i.i16:                                ; preds = %67, %61
  %.sink.i.i17 = phi i32 [ 1, %67 ], [ %65, %61 ]
  %.ph.i.i18 = phi ptr [ %55, %67 ], [ %62, %61 ]
  store i32 %.sink.i.i17, ptr %8, align 4, !tbaa !59
  br label %68

68:                                               ; preds = %.sink.split.i.i16, %66
  %69 = phi ptr [ %55, %66 ], [ %.ph.i.i18, %.sink.split.i.i16 ]
  %70 = phi i32 [ %59, %66 ], [ %.sink.i.i17, %.sink.split.i.i16 ]
  %71 = icmp ugt i32 %70, %58
  br i1 %71, label %72, label %73

72:                                               ; preds = %68
  store i32 1, ptr %53, align 8, !tbaa !62
  store i32 1, ptr %8, align 4, !tbaa !59
  br label %73

73:                                               ; preds = %72, %68
  %74 = phi i32 [ 1, %72 ], [ %70, %68 ]
  %75 = icmp ugt i32 %57, 65535
  br i1 %75, label %rac_get_bits.exit, label %54

rac_get_bits.exit:                                ; preds = %73, %43
  %76 = add nsw i32 %47, %45
  br label %77

77:                                               ; preds = %rac_get_bits.exit, %rac_get_bit.exit
  %.1 = phi i32 [ %76, %rac_get_bits.exit ], [ %3, %rac_get_bit.exit ]
  %78 = sub nsw i32 0, %.1
  %spec.select = select i1 %.not19, i32 %78, i32 %.1
  br label %79

79:                                               ; preds = %77, %2
  %.0 = phi i32 [ 0, %2 ], [ %spec.select, %77 ]
  ret i32 %.0
}